(dp0
S'METTS MARK'
p1
(dp2
S'to_messages'
p3
I807
sS'to_ratio'
p4
F0.034482758620689655
sS'deferral_payments'
p5
S'NaN'
p6
sS'bonus_to_salary_ratio'
p7
F1.6402943781644013
sS'expenses'
p8
I94299
sS'poi'
p9
I00
sS'deferred_income'
p10
g6
sS'email_address'
p11
S'mark.metts@enron.com'
p12
sS'long_term_incentive'
p13
g6
sS'incentives_to_salary_ratio'
p14
I0
sS'restricted_stock_deferred'
p15
g6
sS'shared_receipt_with_poi'
p16
I702
sS'loan_advances'
p17
g6
sS'from_messages'
p18
I29
sS'other'
p19
I1740
sS'director_fees'
p20
g6
sS'bonus'
p21
I600000
sS'total_stock_value'
p22
I585062
sS'from_poi_to_this_person'
p23
I38
sS'from_this_person_to_poi'
p24
I1
sS'restricted_stock'
p25
I585062
sS'salary'
p26
I365788
sS'total_payments'
p27
I1061827
sS'from_ratio'
p28
F0.04708798017348203
sS'exercised_stock_options'
p29
g6
sS'exercised_stock_to_salary_ratio'
p30
I0
ssS'BAXTER JOHN C'
p31
(dp32
g3
g6
sg4
I0
sg5
I1295738
sg7
F4.492665723206865
sg8
I11200
sg9
I00
sg10
I-1386055
sg11
g6
sg13
I1586055
sg14
F5.938012444684054
sg15
g6
sg16
g6
sg17
g6
sg18
g6
sg19
I2660303
sg20
g6
sg21
I1200000
sg22
I10623258
sg23
g6
sg24
g6
sg25
I3942714
sg26
I267102
sg27
I5634343
sg28
I0
sg29
I6680544
sg30
F25.0112092009794
ssS'ELLIOTT STEVEN'
p33
(dp34
g3
g6
sg4
I0
sg5
g6
sg7
F2.047490069673162
sg8
I78552
sg9
I00
sg10
I-400729
sg11
S'steven.elliott@enron.com'
p35
sg13
g6
sg14
I0
sg15
g6
sg16
g6
sg17
g6
sg18
g6
sg19
I12961
sg20
g6
sg21
I350000
sg22
I6678735
sg23
g6
sg24
g6
sg25
I1788391
sg26
I170941
sg27
I211725
sg28
I0
sg29
I4890344
sg30
F28.6083736493878
ssS'CORDES WILLIAM R'
p36
(dp37
g3
I764
sg4
F0.0
sg5
g6
sg7
I0
sg8
g6
sg9
I00
sg10
g6
sg11
S'bill.cordes@enron.com'
p38
sg13
g6
sg14
I0
sg15
g6
sg16
I58
sg17
g6
sg18
I12
sg19
g6
sg20
g6
sg21
g6
sg22
I1038185
sg23
I10
sg24
I0
sg25
I386335
sg26
g6
sg27
g6
sg28
F0.013089005235602094
sg29
I651850
sg30
I0
ssS'HANNON KEVIN P'
p39
(dp40
g3
I1045
sg4
F0.65625
sg5
g6
sg7
F6.165405498719651
sg8
I34039
sg9
I01
sg10
I-3117011
sg11
S'kevin.hannon@enron.com'
p41
sg13
I1617011
sg14
F6.646352340593441
sg15
g6
sg16
I1035
sg17
g6
sg18
I32
sg19
I11350
sg20
g6
sg21
I1500000
sg22
I6391065
sg23
I32
sg24
I21
sg25
I853064
sg26
I243293
sg27
I288682
sg28
F0.03062200956937799
sg29
I5538001
sg30
F22.762681211543285
ssS'MORDAUNT KRISTINA M'
p42
(dp43
g3
g6
sg4
I0
sg5
g6
sg7
F1.2168046335920448
sg8
I35018
sg9
I00
sg10
g6
sg11
S'kristina.mordaunt@enron.com'
p44
sg13
g6
sg14
I0
sg15
g6
sg16
g6
sg17
g6
sg18
g6
sg19
I1411
sg20
g6
sg21
I325000
sg22
I208510
sg23
g6
sg24
g6
sg25
I208510
sg26
I267093
sg27
I628522
sg28
I0
sg29
g6
sg30
I0
ssS'MEYER ROCKFORD G'
p45
(dp46
g3
I232
sg4
F0.0
sg5
I1848227
sg7
I0
sg8
g6
sg9
I00
sg10
g6
sg11
S'rockford.meyer@enron.com'
p47
sg13
g6
sg14
I0
sg15
g6
sg16
I22
sg17
g6
sg18
I28
sg19
g6
sg20
g6
sg21
g6
sg22
I955873
sg23
I0
sg24
I0
sg25
I462384
sg26
g6
sg27
I1848227
sg28
F0.0
sg29
I493489
sg30
I0
ssS'MCMAHON JEFFREY'
p48
(dp49
g3
I2355
sg4
F0.5416666666666666
sg5
g6
sg7
F7.018528916339135
sg8
I137108
sg9
I00
sg10
g6
sg11
S'jeffrey.mcmahon@enron.com'
p50
sg13
I694862
sg14
F1.875734246102017
sg15
g6
sg16
I2228
sg17
g6
sg18
I48
sg19
I297353
sg20
g6
sg21
I2600000
sg22
I1662855
sg23
I58
sg24
I26
sg25
I558801
sg26
I370448
sg27
I4099771
sg28
F0.024628450106157114
sg29
I1104054
sg30
F2.9803211246922645
ssS'HORTON STANLEY C'
p51
(dp52
g3
I2350
sg4
F0.013979496738117428
sg5
I3131860
sg7
I0
sg8
g6
sg9
I00
sg10
g6
sg11
S'stanley.horton@enron.com'
p53
sg13
g6
sg14
I0
sg15
g6
sg16
I1074
sg17
g6
sg18
I1073
sg19
g6
sg20
g6
sg21
g6
sg22
I7256648
sg23
I44
sg24
I15
sg25
I2046079
sg26
g6
sg27
I3131860
sg28
F0.01872340425531915
sg29
I5210569
sg30
I0
ssS'PIPER GREGORY F'
p54
(dp55
g3
I1238
sg4
F0.21621621621621623
sg5
I1130036
sg7
F2.0295193590777862
sg8
I43057
sg9
I00
sg10
I-33333
sg11
S'greg.piper@enron.com'
p56
sg13
g6
sg14
I0
sg15
I-409554
sg16
I742
sg17
g6
sg18
I222
sg19
I778
sg20
g6
sg21
I400000
sg22
I880290
sg23
I61
sg24
I48
sg25
I409554
sg26
I197091
sg27
I1737629
sg28
F0.049273021001615507
sg29
I880290
sg30
F4.466413991506461
ssS'HUMPHREY GENE E'
p57
(dp58
g3
I128
sg4
F1.0
sg5
I2964506
sg7
I0
sg8
I4994
sg9
I00
sg10
g6
sg11
S'gene.humphrey@enron.com'
p59
sg13
g6
sg14
I0
sg15
g6
sg16
I119
sg17
g6
sg18
I17
sg19
g6
sg20
g6
sg21
g6
sg22
I2282768
sg23
I10
sg24
I17
sg25
g6
sg26
I130724
sg27
I3100224
sg28
F0.078125
sg29
I2282768
sg30
F17.462501147455708
ssS'UMANOFF ADAM S'
p60
(dp61
g3
I111
sg4
F0.0
sg5
g6
sg7
F2.7331256562100426
sg8
I53122
sg9
I00
sg10
g6
sg11
S'adam.umanoff@enron.com'
p62
sg13
g6
sg14
I0
sg15
g6
sg16
I41
sg17
g6
sg18
I18
sg19
g6
sg20
g6
sg21
I788750
sg22
g6
sg23
I12
sg24
I0
sg25
g6
sg26
I288589
sg27
I1130461
sg28
F0.10810810810810811
sg29
g6
sg30
I0
ssS'BLACHMAN JEREMY M'
p63
(dp64
g3
I2475
sg4
F0.14285714285714285
sg5
g6
sg7
F3.419890080709406
sg8
I84208
sg9
I00
sg10
g6
sg11
S'jeremy.blachman@enron.com'
p65
sg13
I831809
sg14
F3.3467004095821298
sg15
g6
sg16
I2326
sg17
g6
sg18
I14
sg19
I272
sg20
g6
sg21
I850000
sg22
I954354
sg23
I25
sg24
I2
sg25
I189041
sg26
I248546
sg27
I2014835
sg28
F0.010101010101010102
sg29
I765313
sg30
F3.0791603968681853
ssS'SUNDE MARTIN'
p66
(dp67
g3
I2647
sg4
F0.34210526315789475
sg5
g6
sg7
F2.7185944090164127
sg8
g6
sg9
I00
sg10
g6
sg11
S'marty.sunde@enron.com'
p68
sg13
I476451
sg14
F1.8503957496718269
sg15
g6
sg16
I2565
sg17
g6
sg18
I38
sg19
I111122
sg20
g6
sg21
I700000
sg22
I698920
sg23
I37
sg24
I13
sg25
I698920
sg26
I257486
sg27
I1545059
sg28
F0.013978088401964487
sg29
g6
sg30
I0
ssS'GIBBS DANA R'
p69
(dp70
g3
I169
sg4
F0.0
sg5
I504610
sg7
I0
sg8
g6
sg9
I00
sg10
g6
sg11
S'dana.gibbs@enron.com'
p71
sg13
I461912
sg14
I0
sg15
g6
sg16
I23
sg17
g6
sg18
I12
sg19
g6
sg20
g6
sg21
g6
sg22
I2218275
sg23
I0
sg24
I0
sg25
g6
sg26
g6
sg27
I966522
sg28
F0.0
sg29
I2218275
sg30
I0
ssS'LOWRY CHARLES P'
p72
(dp73
g3
g6
sg4
I0
sg5
g6
sg7
I0
sg8
g6
sg9
I00
sg10
g6
sg11
g6
sg13
g6
sg14
I0
sg15
I-153686
sg16
g6
sg17
g6
sg18
g6
sg19
g6
sg20
g6
sg21
g6
sg22
I372205
sg23
g6
sg24
g6
sg25
I153686
sg26
g6
sg27
g6
sg28
I0
sg29
I372205
sg30
I0
ssS'COLWELL WESLEY'
p74
(dp75
g3
I1758
sg4
F0.275
sg5
I27610
sg7
F4.158839960906905
sg8
I16514
sg9
I01
sg10
I-144062
sg11
S'wes.colwell@enron.com'
p76
sg13
g6
sg14
I0
sg15
g6
sg16
I1132
sg17
g6
sg18
I40
sg19
I101740
sg20
g6
sg21
I1200000
sg22
I698242
sg23
I240
sg24
I11
sg25
I698242
sg26
I288542
sg27
I1490344
sg28
F0.13651877133105803
sg29
g6
sg30
I0
ssS'MULLER MARK S'
p77
(dp78
g3
I136
sg4
F0.0
sg5
I842924
sg7
F4.3710809285765375
sg8
g6
sg9
I00
sg10
I-719000
sg11
S's..muller@enron.com'
p79
sg13
I1725545
sg14
F6.856815309909638
sg15
g6
sg16
I114
sg17
g6
sg18
I16
sg19
I947
sg20
g6
sg21
I1100000
sg22
I1416848
sg23
I12
sg24
I0
sg25
I360528
sg26
I251654
sg27
I3202070
sg28
F0.08823529411764706
sg29
I1056320
sg30
F4.197509278612698
ssS'JACKSON CHARLENE R'
p80
(dp81
g3
I258
sg4
F0.3392857142857143
sg5
g6
sg7
F0.8663769502145149
sg8
I10181
sg9
I00
sg10
g6
sg11
S'charlene.jackson@enron.com'
p82
sg13
g6
sg14
I0
sg15
g6
sg16
I117
sg17
g6
sg18
I56
sg19
I2435
sg20
g6
sg21
I250000
sg22
I725735
sg23
I25
sg24
I19
sg25
I540672
sg26
I288558
sg27
I551174
sg28
F0.09689922480620156
sg29
I185063
sg30
F0.6413372701501951
ssS'WESTFAHL RICHARD K'
p83
(dp84
g3
g6
sg4
I0
sg5
g6
sg7
I0
sg8
I51870
sg9
I00
sg10
I-10800
sg11
S'dick.westfahl@enron.com'
p85
sg13
I256191
sg14
F4.019060617469879
sg15
g6
sg16
g6
sg17
g6
sg18
g6
sg19
I401130
sg20
g6
sg21
g6
sg22
I384930
sg23
g6
sg24
g6
sg25
I384930
sg26
I63744
sg27
I762135
sg28
I0
sg29
g6
sg30
I0
ssS'WALTERS GARETH W'
p86
(dp87
g3
g6
sg4
I0
sg5
I53625
sg7
I0
sg8
I33785
sg9
I00
sg10
g6
sg11
g6
sg13
g6
sg14
I0
sg15
g6
sg16
g6
sg17
g6
sg18
g6
sg19
g6
sg20
g6
sg21
g6
sg22
I1030329
sg23
g6
sg24
g6
sg25
g6
sg26
g6
sg27
I87410
sg28
I0
sg29
I1030329
sg30
I0
ssS'WALLS JR ROBERT H'
p88
(dp89
g3
I671
sg4
F0.0
sg5
g6
sg7
F2.380345626184922
sg8
I50936
sg9
I00
sg10
g6
sg11
S'rob.walls@enron.com'
p90
sg13
I540751
sg14
F1.5143226796530855
sg15
g6
sg16
I215
sg17
g6
sg18
I146
sg19
I2
sg20
g6
sg21
I850000
sg22
I5898997
sg23
I17
sg24
I0
sg25
I1552453
sg26
I357091
sg27
I1798780
sg28
F0.02533532041728763
sg29
I4346544
sg30
F12.172090587553313
ssS'KITCHEN LOUISE'
p91
(dp92
g3
I8305
sg4
F0.11226851851851852
sg5
g6
sg7
F11.420487617981005
sg8
I5774
sg9
I00
sg10
g6
sg11
S'louise.kitchen@enron.com'
p93
sg13
g6
sg14
I0
sg15
g6
sg16
I3669
sg17
g6
sg18
I1728
sg19
I93925
sg20
g6
sg21
I3100000
sg22
I547143
sg23
I251
sg24
I194
sg25
I466101
sg26
I271442
sg27
I3471141
sg28
F0.030222757375075255
sg29
I81042
sg30
F0.2985610185601344
ssS'CHAN RONNIE'
p94
(dp95
g3
g6
sg4
I0
sg5
g6
sg7
I0
sg8
g6
sg9
I00
sg10
I-98784
sg11
g6
sg13
g6
sg14
I0
sg15
I-32460
sg16
g6
sg17
g6
sg18
g6
sg19
g6
sg20
I98784
sg21
g6
sg22
g6
sg23
g6
sg24
g6
sg25
I32460
sg26
g6
sg27
g6
sg28
I0
sg29
g6
sg30
I0
ssS'BELFER ROBERT'
p96
(dp97
g3
g6
sg4
I0
sg5
I-102500
sg7
I0
sg8
g6
sg9
I00
sg10
g6
sg11
g6
sg13
g6
sg14
I0
sg15
I44093
sg16
g6
sg17
g6
sg18
g6
sg19
g6
sg20
I3285
sg21
g6
sg22
I-44093
sg23
g6
sg24
g6
sg25
g6
sg26
g6
sg27
I102500
sg28
I0
sg29
I3285
sg30
I0
ssS'SHANKMAN JEFFREY A'
p98
(dp99
g3
I3221
sg4
F0.030958597538232
sg5
g6
sg7
F6.576567689322943
sg8
I178979
sg9
I00
sg10
g6
sg11
S'jeffrey.shankman@enron.com'
p100
sg13
I554422
sg14
F1.8230969057249022
sg15
g6
sg16
I1730
sg17
g6
sg18
I2681
sg19
I1191
sg20
g6
sg21
I2000000
sg22
I2072035
sg23
I94
sg24
I83
sg25
I630137
sg26
I304110
sg27
I3038702
sg28
F0.029183483390251473
sg29
I1441898
sg30
F4.741369899049686
ssS'WODRASKA JOHN'
p101
(dp102
g3
g6
sg4
I0
sg5
g6
sg7
I0
sg8
g6
sg9
I00
sg10
g6
sg11
S'john.wodraska@enron.com'
p103
sg13
g6
sg14
I0
sg15
g6
sg16
g6
sg17
g6
sg18
g6
sg19
I189583
sg20
g6
sg21
g6
sg22
g6
sg23
g6
sg24
g6
sg25
g6
sg26
g6
sg27
I189583
sg28
I0
sg29
g6
sg30
I0
ssS'BERGSIEKER RICHARD P'
p104
(dp105
g3
I383
sg4
F0.0
sg5
g6
sg7
F1.3303391832781686
sg8
I59175
sg9
I00
sg10
I-485813
sg11
S'rick.bergsieker@enron.com'
p106
sg13
I180250
sg14
F0.9591745511435595
sg15
g6
sg16
I233
sg17
g6
sg18
I59
sg19
I427316
sg20
g6
sg21
I250000
sg22
I659249
sg23
I4
sg24
I0
sg25
I659249
sg26
I187922
sg27
I618850
sg28
F0.010443864229765013
sg29
g6
sg30
I0
ssS'URQUHART JOHN A'
p107
(dp108
g3
g6
sg4
I0
sg5
g6
sg7
I0
sg8
I228656
sg9
I00
sg10
I-36666
sg11
g6
sg13
g6
sg14
I0
sg15
g6
sg16
g6
sg17
g6
sg18
g6
sg19
g6
sg20
I36666
sg21
g6
sg22
g6
sg23
g6
sg24
g6
sg25
g6
sg26
g6
sg27
I228656
sg28
I0
sg29
g6
sg30
I0
ssS'BIBI PHILIPPE A'
p109
(dp110
g3
I1607
sg4
F0.2
sg5
g6
sg7
F4.681100058513751
sg8
I38559
sg9
I00
sg10
g6
sg11
S'philippe.bibi@enron.com'
p111
sg13
I369721
sg14
F1.7307009947337624
sg15
g6
sg16
I1336
sg17
g6
sg18
I40
sg19
I425688
sg20
g6
sg21
I1000000
sg22
I1843816
sg23
I23
sg24
I8
sg25
I378082
sg26
I213625
sg27
I2047593
sg28
F0.01431238332296204
sg29
I1465734
sg30
F6.861247513165594
ssS'RIEKER PAULA H'
p112
(dp113
g3
I1328
sg4
F0.5853658536585366
sg5
I214678
sg7
F2.8089774920646384
sg8
I33271
sg9
I01
sg10
I-100000
sg11
S'paula.rieker@enron.com'
p114
sg13
g6
sg14
I0
sg15
g6
sg16
I1258
sg17
g6
sg18
I82
sg19
I1950
sg20
g6
sg21
I700000
sg22
I1918887
sg23
I35
sg24
I48
sg25
I283649
sg26
I249201
sg27
I1099100
sg28
F0.02635542168674699
sg29
I1635238
sg30
F6.561923908812565
ssS'WHALEY DAVID A'
p115
(dp116
g3
g6
sg4
I0
sg5
g6
sg7
I0
sg8
g6
sg9
I00
sg10
g6
sg11
g6
sg13
g6
sg14
I0
sg15
g6
sg16
g6
sg17
g6
sg18
g6
sg19
g6
sg20
g6
sg21
g6
sg22
I98718
sg23
g6
sg24
g6
sg25
g6
sg26
g6
sg27
g6
sg28
I0
sg29
I98718
sg30
I0
ssS'BECK SALLY W'
p117
(dp118
g3
I7315
sg4
F0.08887865530739121
sg5
g6
sg7
F3.025980201443825
sg8
I37172
sg9
I00
sg10
g6
sg11
S'sally.beck@enron.com'
p119
sg13
g6
sg14
I0
sg15
g6
sg16
I2639
sg17
g6
sg18
I4343
sg19
I566
sg20
g6
sg21
I700000
sg22
I126027
sg23
I144
sg24
I386
sg25
I126027
sg26
I231330
sg27
I969068
sg28
F0.01968557758031442
sg29
g6
sg30
I0
ssS'HAUG DAVID L'
p120
(dp121
g3
I573
sg4
F0.3684210526315789
sg5
g6
sg7
I0
sg8
I475
sg9
I00
sg10
g6
sg11
S'david.haug@enron.com'
p122
sg13
g6
sg14
I0
sg15
g6
sg16
I471
sg17
g6
sg18
I19
sg19
g6
sg20
g6
sg21
g6
sg22
I2217299
sg23
I4
sg24
I7
sg25
I2217299
sg26
g6
sg27
I475
sg28
F0.006980802792321117
sg29
g6
sg30
I0
ssS'ECHOLS JOHN B'
p123
(dp124
g3
g6
sg4
I0
sg5
g6
sg7
F1.0974237976350518
sg8
I21530
sg9
I00
sg10
g6
sg11
S'john.echols@enron.com'
p125
sg13
I2234774
sg14
F12.262470849680374
sg15
g6
sg16
g6
sg17
g6
sg18
g6
sg19
I53775
sg20
g6
sg21
I200000
sg22
I1008941
sg23
g6
sg24
g6
sg25
I407503
sg26
I182245
sg27
I2692324
sg28
I0
sg29
I601438
sg30
F3.300161870010151
ssS'MENDELSOHN JOHN'
p126
(dp127
g3
g6
sg4
I0
sg5
g6
sg7
I0
sg8
I148
sg9
I00
sg10
I-103750
sg11
g6
sg13
g6
sg14
I0
sg15
g6
sg16
g6
sg17
g6
sg18
g6
sg19
g6
sg20
I103750
sg21
g6
sg22
g6
sg23
g6
sg24
g6
sg25
g6
sg26
g6
sg27
I148
sg28
I0
sg29
g6
sg30
I0
ssS'HICKERSON GARY J'
p128
(dp129
g3
I1320
sg4
F0.037037037037037035
sg5
g6
sg7
F8.02689481934765
sg8
I98849
sg9
I00
sg10
g6
sg11
S'gary.hickerson@enron.com'
p130
sg13
I69223
sg14
F0.3268504353410014
sg15
g6
sg16
I900
sg17
g6
sg18
I27
sg19
I1936
sg20
g6
sg21
I1700000
sg22
I441096
sg23
I40
sg24
I1
sg25
I441096
sg26
I211788
sg27
I2081796
sg28
F0.030303030303030304
sg29
g6
sg30
I0
ssS'CLINE KENNETH W'
p131
(dp132
g3
g6
sg4
I0
sg5
g6
sg7
I0
sg8
g6
sg9
I00
sg10
g6
sg11
g6
sg13
g6
sg14
I0
sg15
I-472568
sg16
g6
sg17
g6
sg18
g6
sg19
g6
sg20
g6
sg21
g6
sg22
I189518
sg23
g6
sg24
g6
sg25
I662086
sg26
g6
sg27
g6
sg28
I0
sg29
g6
sg30
I0
ssS'LEWIS RICHARD'
p133
(dp134
g3
I952
sg4
F0.0
sg5
g6
sg7
I0
sg8
g6
sg9
I00
sg10
g6
sg11
S'richard.lewis@enron.com'
p135
sg13
g6
sg14
I0
sg15
g6
sg16
I739
sg17
g6
sg18
I26
sg19
g6
sg20
g6
sg21
g6
sg22
I850477
sg23
I10
sg24
I0
sg25
g6
sg26
g6
sg27
g6
sg28
F0.01050420168067227
sg29
I850477
sg30
I0
ssS'HAYES ROBERT E'
p136
(dp137
g3
I504
sg4
F0.0
sg5
I7961
sg7
I0
sg8
g6
sg9
I00
sg10
g6
sg11
S'robert.hayes@enron.com'
p138
sg13
g6
sg14
I0
sg15
g6
sg16
I50
sg17
g6
sg18
I12
sg19
g6
sg20
g6
sg21
g6
sg22
I151418
sg23
I16
sg24
I0
sg25
I151418
sg26
g6
sg27
I7961
sg28
F0.031746031746031744
sg29
g6
sg30
I0
ssS'MCCARTY DANNY J'
p139
(dp140
g3
I1433
sg4
F0.009302325581395349
sg5
g6
sg7
I0
sg8
g6
sg9
I00
sg10
g6
sg11
S'danny.mccarty@enron.com'
p141
sg13
g6
sg14
I0
sg15
g6
sg16
I508
sg17
g6
sg18
I215
sg19
g6
sg20
g6
sg21
g6
sg22
I758931
sg23
I25
sg24
I2
sg25
I94556
sg26
g6
sg27
g6
sg28
F0.017445917655268667
sg29
I664375
sg30
I0
ssS'KOPPER MICHAEL J'
p142
(dp143
g3
g6
sg4
I0
sg5
g6
sg7
F3.5665723011078665
sg8
I118134
sg9
I01
sg10
g6
sg11
S'michael.kopper@enron.com'
p144
sg13
I602671
sg14
F2.6868371191012237
sg15
g6
sg16
g6
sg17
g6
sg18
g6
sg19
I907502
sg20
g6
sg21
I800000
sg22
I985032
sg23
g6
sg24
g6
sg25
I985032
sg26
I224305
sg27
I2652612
sg28
I0
sg29
g6
sg30
I0
ssS'LEFF DANIEL P'
p145
(dp146
g3
I2822
sg4
F0.2222222222222222
sg5
g6
sg7
F3.653021414011529
sg8
g6
sg9
I00
sg10
g6
sg11
S'dan.leff@enron.com'
p147
sg13
I1387399
sg14
F5.068198256778182
sg15
g6
sg16
I2672
sg17
g6
sg18
I63
sg19
I3083
sg20
g6
sg21
I1000000
sg22
I360528
sg23
I67
sg24
I14
sg25
I360528
sg26
I273746
sg27
I2664228
sg28
F0.02374202693125443
sg29
g6
sg30
I0
ssS'LAVORATO JOHN J'
p148
(dp149
g3
I7259
sg4
F0.15899419729206962
sg5
g6
sg7
F23.57878852184575
sg8
I49537
sg9
I00
sg10
g6
sg11
S'john.lavorato@enron.com'
p150
sg13
I2035380
sg14
F5.9989743226993
sg15
g6
sg16
I3962
sg17
g6
sg18
I2585
sg19
I1552
sg20
g6
sg21
I8000000
sg22
I5167144
sg23
I528
sg24
I411
sg25
I1008149
sg26
I339288
sg27
I10425757
sg28
F0.07273729163796666
sg29
I4158995
sg30
F12.258007946051732
ssS'BERBERIAN DAVID'
p151
(dp152
g3
g6
sg4
I0
sg5
g6
sg7
I0
sg8
I11892
sg9
I00
sg10
g6
sg11
S'david.berberian@enron.com'
p153
sg13
g6
sg14
I0
sg15
g6
sg16
g6
sg17
g6
sg18
g6
sg19
g6
sg20
g6
sg21
g6
sg22
I2493616
sg23
g6
sg24
g6
sg25
I869220
sg26
I216582
sg27
I228474
sg28
I0
sg29
I1624396
sg30
F7.500143132854992
ssS'DETMERING TIMOTHY J'
p154
(dp155
g3
g6
sg4
I0
sg5
I875307
sg7
F2.019002375296912
sg8
I52255
sg9
I00
sg10
I-775241
sg11
S'timothy.detmering@enron.com'
p156
sg13
I415657
sg14
F1.9746175771971497
sg15
I-315068
sg16
g6
sg17
g6
sg18
g6
sg19
I1105
sg20
g6
sg21
I425000
sg22
I2027865
sg23
g6
sg24
g6
sg25
I315068
sg26
I210500
sg27
I1204583
sg28
I0
sg29
I2027865
sg30
F9.63356294536817
ssS'WAKEHAM JOHN'
p157
(dp158
g3
g6
sg4
I0
sg5
g6
sg7
I0
sg8
I103773
sg9
I00
sg10
g6
sg11
g6
sg13
g6
sg14
I0
sg15
g6
sg16
g6
sg17
g6
sg18
g6
sg19
g6
sg20
I109298
sg21
g6
sg22
g6
sg23
g6
sg24
g6
sg25
g6
sg26
g6
sg27
I213071
sg28
I0
sg29
g6
sg30
I0
ssS'POWERS WILLIAM'
p159
(dp160
g3
I653
sg4
F0.0
sg5
g6
sg7
I0
sg8
g6
sg9
I00
sg10
I-17500
sg11
S'ken.powers@enron.com'
p161
sg13
g6
sg14
I0
sg15
g6
sg16
I12
sg17
g6
sg18
I26
sg19
g6
sg20
I17500
sg21
g6
sg22
g6
sg23
I0
sg24
I0
sg25
g6
sg26
g6
sg27
g6
sg28
F0.0
sg29
g6
sg30
I0
ssS'GOLD JOSEPH'
p162
(dp163
g3
g6
sg4
I0
sg5
g6
sg7
F2.748460861917326
sg8
g6
sg9
I00
sg10
g6
sg11
S'joe.gold@enron.com'
p164
sg13
I304805
sg14
F1.1169928173556143
sg15
g6
sg16
g6
sg17
g6
sg18
g6
sg19
I819288
sg20
g6
sg21
I750000
sg22
I877611
sg23
g6
sg24
g6
sg25
I441096
sg26
I272880
sg27
I2146973
sg28
I0
sg29
I436515
sg30
F1.5996591908531224
ssS'BANNANTINE JAMES M'
p165
(dp166
g3
I566
sg4
F0.0
sg5
g6
sg7
I0
sg8
I56301
sg9
I00
sg10
I-5104
sg11
S'james.bannantine@enron.com'
p167
sg13
g6
sg14
I0
sg15
I-560222
sg16
I465
sg17
g6
sg18
I29
sg19
I864523
sg20
g6
sg21
g6
sg22
I5243487
sg23
I39
sg24
I0
sg25
I1757552
sg26
I477
sg27
I916197
sg28
F0.06890459363957598
sg29
I4046157
sg30
F8482.509433962265
ssS'DUNCAN JOHN H'
p168
(dp169
g3
g6
sg4
I0
sg5
g6
sg7
I0
sg8
g6
sg9
I00
sg10
I-25000
sg11
g6
sg13
g6
sg14
I0
sg15
g6
sg16
g6
sg17
g6
sg18
g6
sg19
g6
sg20
I102492
sg21
g6
sg22
I371750
sg23
g6
sg24
g6
sg25
g6
sg26
g6
sg27
I77492
sg28
I0
sg29
I371750
sg30
I0
ssS'SHAPIRO RICHARD S'
p170
(dp171
g3
I15149
sg4
F0.053497942386831275
sg5
g6
sg7
F2.4156743819590005
sg8
I137767
sg9
I00
sg10
g6
sg11
S'richard.shapiro@enron.com'
p172
sg13
g6
sg14
I0
sg15
g6
sg16
I4527
sg17
g6
sg18
I1215
sg19
I705
sg20
g6
sg21
I650000
sg22
I987001
sg23
I74
sg24
I65
sg25
I379164
sg26
I269076
sg27
I1057548
sg28
F0.0048848108786058485
sg29
I607837
sg30
F2.258978875856635
ssS'SHERRIFF JOHN R'
p173
(dp174
g3
I3187
sg4
F0.25
sg5
g6
sg7
F3.4982974952189934
sg8
g6
sg9
I00
sg10
g6
sg11
S'john.sherriff@enron.com'
p175
sg13
I554422
sg14
F1.2930220625962032
sg15
g6
sg16
I2103
sg17
g6
sg18
I92
sg19
I1852186
sg20
g6
sg21
I1500000
sg22
I3128982
sg23
I28
sg24
I23
sg25
I1293424
sg26
I428780
sg27
I4335388
sg28
F0.008785691873235017
sg29
I1835558
sg30
F4.280885302486124
ssS'SHELBY REX'
p176
(dp177
g3
I225
sg4
F0.358974358974359
sg5
g6
sg7
F0.9440909348388437
sg8
I22884
sg9
I01
sg10
I-4167
sg11
S'rex.shelby@enron.com'
p178
sg13
g6
sg14
I0
sg15
g6
sg16
I91
sg17
g6
sg18
I39
sg19
I1573324
sg20
g6
sg21
I200000
sg22
I2493616
sg23
I13
sg24
I14
sg25
I869220
sg26
I211844
sg27
I2003885
sg28
F0.057777777777777775
sg29
I1624396
sg30
F7.667887690942392
ssS'LEMAISTRE CHARLES'
p179
(dp180
g3
g6
sg4
I0
sg5
g6
sg7
I0
sg8
g6
sg9
I00
sg10
I-25000
sg11
g6
sg13
g6
sg14
I0
sg15
g6
sg16
g6
sg17
g6
sg18
g6
sg19
g6
sg20
I112492
sg21
g6
sg22
I412878
sg23
g6
sg24
g6
sg25
g6
sg26
g6
sg27
I87492
sg28
I0
sg29
I412878
sg30
I0
ssS'DEFFNER JOSEPH M'
p181
(dp182
g3
I714
sg4
F0.05405405405405406
sg5
g6
sg7
F2.910911551952494
sg8
I41626
sg9
I00
sg10
g6
sg11
S'joseph.deffner@enron.com'
p183
sg13
I335349
sg14
F1.6269521300595282
sg15
g6
sg16
I552
sg17
g6
sg18
I74
sg19
I25553
sg20
g6
sg21
I600000
sg22
I159211
sg23
I115
sg24
I4
sg25
I141833
sg26
I206121
sg27
I1208649
sg28
F0.16106442577030813
sg29
I17378
sg30
F0.08430970158305073
ssS'KISHKILL JOSEPH G'
p184
(dp185
g3
g6
sg4
I0
sg5
g6
sg7
I0
sg8
I116335
sg9
I00
sg10
I-51042
sg11
S'joe.kishkill@enron.com'
p186
sg13
g6
sg14
I0
sg15
g6
sg16
g6
sg17
g6
sg18
g6
sg19
I465357
sg20
g6
sg21
g6
sg22
I1034346
sg23
g6
sg24
g6
sg25
I1034346
sg26
I174246
sg27
I704896
sg28
I0
sg29
g6
sg30
I0
ssS'WHALLEY LAWRENCE G'
p187
(dp188
g3
I6019
sg4
F0.04316546762589928
sg5
g6
sg7
F5.878157550297435
sg8
I57838
sg9
I00
sg10
g6
sg11
S'greg.whalley@enron.com'
p189
sg13
I808346
sg14
F1.5838617143842435
sg15
g6
sg16
I3920
sg17
g6
sg18
I556
sg19
I301026
sg20
g6
sg21
I3000000
sg22
I6079137
sg23
I186
sg24
I24
sg25
I2796177
sg26
I510364
sg27
I4677574
sg28
F0.03090214321315833
sg29
I3282960
sg30
F6.432585370441489
ssS'MCCONNELL MICHAEL S'
p190
(dp191
g3
I3329
sg4
F0.07075127644055434
sg5
g6
sg7
F3.013384907872605
sg8
I81364
sg9
I00
sg10
g6
sg11
S'mike.mcconnell@enron.com'
p192
sg13
I554422
sg14
F1.5188062612659503
sg15
g6
sg16
I2189
sg17
g6
sg18
I2742
sg19
I540
sg20
g6
sg21
I1100000
sg22
I3101279
sg23
I92
sg24
I194
sg25
I1478269
sg26
I365038
sg27
I2101364
sg28
F0.02763592670471613
sg29
I1623010
sg30
F4.4461398539330155
ssS'PIRO JIM'
p193
(dp194
g3
I58
sg4
F0.0625
sg5
g6
sg7
I0
sg8
g6
sg9
I00
sg10
g6
sg11
S'jim.piro@enron.com'
p195
sg13
g6
sg14
I0
sg15
g6
sg16
I3
sg17
g6
sg18
I16
sg19
g6
sg20
g6
sg21
g6
sg22
I47304
sg23
I0
sg24
I1
sg25
I47304
sg26
g6
sg27
g6
sg28
F0.0
sg29
g6
sg30
I0
ssS'DELAINEY DAVID W'
p196
(dp197
g3
I3093
sg4
F0.198435972629521
sg5
g6
sg7
F8.215509238340138
sg8
I86174
sg9
I01
sg10
g6
sg11
S'david.delainey@enron.com'
p198
sg13
I1294981
sg14
F3.5463094563249835
sg15
g6
sg16
I2097
sg17
g6
sg18
I3069
sg19
I1661
sg20
g6
sg21
I3000000
sg22
I3614261
sg23
I66
sg24
I609
sg25
I1323148
sg26
I365163
sg27
I4747979
sg28
F0.02133850630455868
sg29
I2291113
sg30
F6.274220005860396
ssS'SULLIVAN-SHAKLOVITZ COLLEEN'
p199
(dp200
g3
g6
sg4
I0
sg5
I181993
sg7
F0.6143298582741017
sg8
g6
sg9
I00
sg10
g6
sg11
g6
sg13
I554422
sg14
F3.40597988684044
sg15
g6
sg16
g6
sg17
g6
sg18
g6
sg19
I162
sg20
g6
sg21
I100000
sg22
I1362375
sg23
g6
sg24
g6
sg25
g6
sg26
I162779
sg27
I999356
sg28
I0
sg29
I1362375
sg30
F8.369476406661793
ssS'WROBEL BRUCE'
p201
(dp202
g3
g6
sg4
I0
sg5
g6
sg7
I0
sg8
g6
sg9
I00
sg10
g6
sg11
g6
sg13
g6
sg14
I0
sg15
g6
sg16
g6
sg17
g6
sg18
g6
sg19
g6
sg20
g6
sg21
g6
sg22
I139130
sg23
g6
sg24
g6
sg25
g6
sg26
g6
sg27
g6
sg28
I0
sg29
I139130
sg30
I0
ssS'LINDHOLM TOD A'
p203
(dp204
g3
g6
sg4
I0
sg5
I204075
sg7
F0.8458197473536415
sg8
I57727
sg9
I00
sg10
g6
sg11
S'tod.lindholm@enron.com'
p205
sg13
I175000
sg14
F0.7400922789344363
sg15
g6
sg16
g6
sg17
g6
sg18
g6
sg19
I2630
sg20
g6
sg21
I200000
sg22
I3064208
sg23
g6
sg24
g6
sg25
I514847
sg26
I236457
sg27
I875889
sg28
I0
sg29
I2549361
sg30
F10.781499384666134
ssS'MEYER JEROME J'
p206
(dp207
g3
g6
sg4
I0
sg5
g6
sg7
I0
sg8
I2151
sg9
I00
sg10
I-38346
sg11
g6
sg13
g6
sg14
I0
sg15
g6
sg16
g6
sg17
g6
sg18
g6
sg19
g6
sg20
I38346
sg21
g6
sg22
g6
sg23
g6
sg24
g6
sg25
g6
sg26
g6
sg27
I2151
sg28
I0
sg29
g6
sg30
I0
ssS'LAY KENNETH L'
p208
(dp209
g3
I4273
sg4
F0.4444444444444444
sg5
I202911
sg7
F6.527896031132468
sg8
I99832
sg9
I01
sg10
I-300000
sg11
S'kenneth.lay@enron.com'
p210
sg13
I3600000
sg14
F3.3572036731538413
sg15
g6
sg16
I2411
sg17
I81525000
sg18
I36
sg19
I10359729
sg20
g6
sg21
I7000000
sg22
I49110078
sg23
I123
sg24
I16
sg25
I14761694
sg26
I1072321
sg27
I103559793
sg28
F0.028785396676807865
sg29
I34348384
sg30
F32.031811369916284
ssS'BUTTS ROBERT H'
p211
(dp212
g3
g6
sg4
I0
sg5
g6
sg7
F2.8678933602532926
sg8
I9410
sg9
I00
sg10
I-75000
sg11
S'bob.butts@enron.com'
p213
sg13
I175000
sg14
F0.6691751173924348
sg15
g6
sg16
g6
sg17
g6
sg18
g6
sg19
I150656
sg20
g6
sg21
I750000
sg22
I417619
sg23
g6
sg24
g6
sg25
I417619
sg26
I261516
sg27
I1271582
sg28
I0
sg29
g6
sg30
I0
ssS'OLSON CINDY K'
p214
(dp215
g3
I1184
sg4
F0.28846153846153844
sg5
I77716
sg7
F2.279094925823057
sg8
I63791
sg9
I00
sg10
g6
sg11
S'cindy.olson@enron.com'
p216
sg13
I100000
sg14
F0.3038793234430743
sg15
g6
sg16
I856
sg17
g6
sg18
I52
sg19
I972
sg20
g6
sg21
I750000
sg22
I2606763
sg23
I20
sg24
I15
sg25
I969729
sg26
I329078
sg27
I1321557
sg28
F0.016891891891891893
sg29
I1637034
sg30
F4.9746078437330965
ssS'MCDONALD REBECCA'
p217
(dp218
g3
I894
sg4
F0.07692307692307693
sg5
g6
sg7
I0
sg8
g6
sg9
I00
sg10
g6
sg11
S'rebecca.mcdonald@enron.com'
p219
sg13
g6
sg14
I0
sg15
g6
sg16
I720
sg17
g6
sg18
I13
sg19
g6
sg20
g6
sg21
g6
sg22
I1691366
sg23
I54
sg24
I1
sg25
I934065
sg26
g6
sg27
g6
sg28
F0.06040268456375839
sg29
I757301
sg30
I0
ssS'CUMBERLAND MICHAEL S'
p220
(dp221
g3
g6
sg4
I0
sg5
g6
sg7
F1.7577163748857485
sg8
I22344
sg9
I00
sg10
g6
sg11
g6
sg13
I275000
sg14
F1.4872984710571717
sg15
g6
sg16
g6
sg17
g6
sg18
g6
sg19
I713
sg20
g6
sg21
I325000
sg22
I207940
sg23
g6
sg24
g6
sg25
I207940
sg26
I184899
sg27
I807956
sg28
I0
sg29
g6
sg30
I0
ssS'GAHN ROBERT S'
p222
(dp223
g3
g6
sg4
I0
sg5
I73122
sg7
F2.6554622724053165
sg8
I50080
sg9
I00
sg10
I-1042
sg11
g6
sg13
g6
sg14
I0
sg15
g6
sg16
g6
sg17
g6
sg18
g6
sg19
I76547
sg20
g6
sg21
I509870
sg22
I318607
sg23
g6
sg24
g6
sg25
I235370
sg26
I192008
sg27
I900585
sg28
I0
sg29
I83237
sg30
F0.43350797883421527
ssS'MCCLELLAN GEORGE'
p224
(dp225
g3
I1744
sg4
F0.0
sg5
g6
sg7
F3.4166878627858153
sg8
I228763
sg9
I00
sg10
I-125000
sg11
S'george.mcclellan@enron.com'
p226
sg13
g6
sg14
I0
sg15
g6
sg16
I1469
sg17
g6
sg18
I49
sg19
I51587
sg20
g6
sg21
I900000
sg22
I947861
sg23
I52
sg24
I0
sg25
I441096
sg26
I263413
sg27
I1318763
sg28
F0.02981651376146789
sg29
I506765
sg30
F1.9238420275385042
ssS'HERMANN ROBERT J'
p227
(dp228
g3
g6
sg4
I0
sg5
g6
sg7
F2.665011821231007
sg8
I48357
sg9
I00
sg10
I-280000
sg11
S'robert.hermann@enron.com'
p229
sg13
I150000
sg14
F0.5710739616923587
sg15
g6
sg16
g6
sg17
g6
sg18
g6
sg19
I416441
sg20
g6
sg21
I700000
sg22
I668132
sg23
g6
sg24
g6
sg25
I480632
sg26
I262663
sg27
I1297461
sg28
I0
sg29
I187500
sg30
F0.7138424521154483
ssS'SCRIMSHAW MATTHEW'
p230
(dp231
g3
g6
sg4
I0
sg5
g6
sg7
I0
sg8
g6
sg9
I00
sg10
g6
sg11
S'matthew.scrimshaw@enron.com'
p232
sg13
g6
sg14
I0
sg15
g6
sg16
g6
sg17
g6
sg18
g6
sg19
g6
sg20
g6
sg21
g6
sg22
I759557
sg23
g6
sg24
g6
sg25
g6
sg26
g6
sg27
g6
sg28
I0
sg29
I759557
sg30
I0
ssS'GATHMANN WILLIAM D'
p233
(dp234
g3
g6
sg4
I0
sg5
g6
sg7
I0
sg8
g6
sg9
I00
sg10
g6
sg11
g6
sg13
g6
sg14
I0
sg15
I-72419
sg16
g6
sg17
g6
sg18
g6
sg19
g6
sg20
g6
sg21
g6
sg22
I1945360
sg23
g6
sg24
g6
sg25
I264013
sg26
g6
sg27
g6
sg28
I0
sg29
I1753766
sg30
I0
ssS'HAEDICKE MARK E'
p235
(dp236
g3
I4009
sg4
F0.03142709943328181
sg5
I2157527
sg7
F3.073838957567658
sg8
I76169
sg9
I00
sg10
I-934484
sg11
S'mark.haedicke@enron.com'
p237
sg13
I983346
sg14
F2.6283889074507183
sg15
I-329825
sg16
I1847
sg17
g6
sg18
I1941
sg19
I52382
sg20
g6
sg21
I1150000
sg22
I803094
sg23
I180
sg24
I61
sg25
I524169
sg26
I374125
sg27
I3859065
sg28
F0.04489897730107259
sg29
I608750
sg30
F1.6271299699298363
ssS'BOWEN JR RAYMOND M'
p238
(dp239
g3
I1858
sg4
F0.5555555555555556
sg5
g6
sg7
F4.845639462887786
sg8
I65907
sg9
I01
sg10
I-833
sg11
S'raymond.bowen@enron.com'
p240
sg13
I974293
sg14
F3.4970908216409846
sg15
g6
sg16
I1593
sg17
g6
sg18
I27
sg19
I1621
sg20
g6
sg21
I1350000
sg22
I252055
sg23
I140
sg24
I15
sg25
I252055
sg26
I278601
sg27
I2669589
sg28
F0.07534983853606028
sg29
g6
sg30
I0
ssS'GILLIS JOHN'
p241
(dp242
g3
g6
sg4
I0
sg5
g6
sg7
I0
sg8
g6
sg9
I00
sg10
g6
sg11
g6
sg13
g6
sg14
I0
sg15
g6
sg16
g6
sg17
g6
sg18
g6
sg19
g6
sg20
g6
sg21
g6
sg22
I85641
sg23
g6
sg24
g6
sg25
I75838
sg26
g6
sg27
g6
sg28
I0
sg29
I9803
sg30
I0
ssS'FITZGERALD JAY L'
p243
(dp244
g3
I936
sg4
F0.5
sg5
g6
sg7
F1.7574074724965731
sg8
I23870
sg9
I00
sg10
g6
sg11
S'jay.fitzgerald@enron.com'
p245
sg13
I556416
sg14
F2.793856103476152
sg15
g6
sg16
I723
sg17
g6
sg18
I16
sg19
I285414
sg20
g6
sg21
I350000
sg22
I1621236
sg23
I1
sg24
I8
sg25
I956775
sg26
I199157
sg27
I1414857
sg28
F0.0010683760683760685
sg29
I664461
sg30
F3.336367790235844
ssS'MORAN MICHAEL P'
p246
(dp247
g3
I672
sg4
F0.0
sg5
g6
sg7
I0
sg8
g6
sg9
I00
sg10
g6
sg11
S'michael.moran@enron.com'
p248
sg13
g6
sg14
I0
sg15
g6
sg16
I127
sg17
g6
sg18
I19
sg19
g6
sg20
g6
sg21
g6
sg22
I221141
sg23
I0
sg24
I0
sg25
I161602
sg26
g6
sg27
g6
sg28
F0.0
sg29
I59539
sg30
I0
ssS'REDMOND BRIAN L'
p249
(dp250
g3
I1671
sg4
F0.22171945701357465
sg5
g6
sg7
I0
sg8
I14689
sg9
I00
sg10
g6
sg11
S'brian.redmond@enron.com'
p251
sg13
g6
sg14
I0
sg15
g6
sg16
I1063
sg17
g6
sg18
I221
sg19
g6
sg20
g6
sg21
g6
sg22
I7890324
sg23
I204
sg24
I49
sg25
I381285
sg26
I96840
sg27
I111529
sg28
F0.12208258527827648
sg29
I7509039
sg30
F77.54067534076827
ssS'BAZELIDES PHILIP J'
p252
(dp253
g3
g6
sg4
I0
sg5
I684694
sg7
I0
sg8
g6
sg9
I00
sg10
g6
sg11
g6
sg13
I93750
sg14
F1.160013858298894
sg15
g6
sg16
g6
sg17
g6
sg18
g6
sg19
I874
sg20
g6
sg21
g6
sg22
I1599641
sg23
g6
sg24
g6
sg25
g6
sg26
I80818
sg27
I860136
sg28
I0
sg29
I1599641
sg30
F19.793127768566407
ssS'BELDEN TIMOTHY N'
p254
(dp255
g3
I7991
sg4
F0.2231404958677686
sg5
I2144013
sg7
F24.532820246823583
sg8
I17355
sg9
I01
sg10
I-2334434
sg11
S'tim.belden@enron.com'
p256
sg13
g6
sg14
I0
sg15
g6
sg16
I5521
sg17
g6
sg18
I484
sg19
I210698
sg20
g6
sg21
I5249999
sg22
I1110705
sg23
I228
sg24
I108
sg25
I157569
sg26
I213999
sg27
I5501630
sg28
F0.028532098610937303
sg29
I953136
sg30
F4.453927354800723
ssS'DURAN WILLIAM D'
p257
(dp258
g3
I904
sg4
F0.25
sg5
g6
sg7
F3.559698517266911
sg8
I25785
sg9
I00
sg10
g6
sg11
S'w.duran@enron.com'
p259
sg13
I1105218
sg14
F5.245657167808934
sg15
g6
sg16
I599
sg17
g6
sg18
I12
sg19
I1568
sg20
g6
sg21
I750000
sg22
I1640910
sg23
I106
sg24
I3
sg25
I189041
sg26
I210692
sg27
I2093263
sg28
F0.1172566371681416
sg29
I1451869
sg30
F6.89095456875439
ssS'THORN TERENCE H'
p260
(dp261
g3
I266
sg4
F0.0
sg5
I16586
sg7
I0
sg8
I46145
sg9
I00
sg10
g6
sg11
S'terence.thorn@enron.com'
p262
sg13
I200000
sg14
F0.9005236545050948
sg15
g6
sg16
I73
sg17
g6
sg18
I41
sg19
I426629
sg20
g6
sg21
g6
sg22
I4817796
sg23
I0
sg24
I0
sg25
I365320
sg26
I222093
sg27
I911453
sg28
F0.0
sg29
I4452476
sg30
F20.04779979558113
ssS'FASTOW ANDREW S'
p263
(dp264
g3
g6
sg4
I0
sg5
g6
sg7
F2.949865894558178
sg8
I55921
sg9
I01
sg10
I-1386055
sg11
S'andrew.fastow@enron.com'
p265
sg13
I1736055
sg14
F3.939330335059383
sg15
g6
sg16
g6
sg17
g6
sg18
g6
sg19
I277464
sg20
g6
sg21
I1300000
sg22
I1794412
sg23
g6
sg24
g6
sg25
I1794412
sg26
I440698
sg27
I2424083
sg28
I0
sg29
g6
sg30
I0
ssS'FOY JOE'
p266
(dp267
g3
I57
sg4
F0.0
sg5
I181755
sg7
I0
sg8
g6
sg9
I00
sg10
g6
sg11
S'tracy.foy@enron.com'
p268
sg13
g6
sg14
I0
sg15
g6
sg16
I2
sg17
g6
sg18
I13
sg19
g6
sg20
g6
sg21
g6
sg22
I343434
sg23
I0
sg24
I0
sg25
g6
sg26
g6
sg27
I181755
sg28
F0.0
sg29
I343434
sg30
I0
ssS'CALGER CHRISTOPHER F'
p269
(dp270
g3
I2598
sg4
F0.1736111111111111
sg5
g6
sg7
F5.204234998272194
sg8
I35818
sg9
I01
sg10
I-262500
sg11
S'christopher.calger@enron.com'
p271
sg13
I375304
sg14
F1.562536169433238
sg15
g6
sg16
I2188
sg17
g6
sg18
I144
sg19
I486
sg20
g6
sg21
I1250000
sg22
I126027
sg23
I199
sg24
I25
sg25
I126027
sg26
I240189
sg27
I1639297
sg28
F0.07659738260200154
sg29
g6
sg30
I0
ssS'RICE KENNETH D'
p272
(dp273
g3
I905
sg4
F0.2222222222222222
sg5
g6
sg7
F4.160366682832663
sg8
I46950
sg9
I01
sg10
I-3504386
sg11
S'ken.rice@enron.com'
p274
sg13
I1617011
sg14
F3.8442049658136725
sg15
g6
sg16
I864
sg17
g6
sg18
I18
sg19
I174839
sg20
g6
sg21
I1750000
sg22
I22542539
sg23
I42
sg24
I4
sg25
I2748364
sg26
I420636
sg27
I505050
sg28
F0.04640883977900553
sg29
I19794175
sg30
F47.057729248090986
ssS'KAMINSKI WINCENTY J'
p275
(dp276
g3
I4607
sg4
F0.011901447661469933
sg5
g6
sg7
F1.4540114357999425
sg8
I83585
sg9
I00
sg10
g6
sg11
S'vince.kaminski@enron.com'
p277
sg13
I323466
sg14
F1.1758081577311605
sg15
g6
sg16
I583
sg17
g6
sg18
I14368
sg19
I4669
sg20
g6
sg21
I400000
sg22
I976037
sg23
I41
sg24
I171
sg25
I126027
sg26
I275101
sg27
I1086821
sg28
F0.008899500759713479
sg29
I850010
sg30
F3.089810651360773
ssS'COX DAVID'
p278
(dp279
g3
I102
sg4
F0.12121212121212122
sg5
g6
sg7
F2.5454360331924857
sg8
I27861
sg9
I00
sg10
I-41250
sg11
S'chip.cox@enron.com'
p280
sg13
g6
sg14
I0
sg15
g6
sg16
I71
sg17
g6
sg18
I33
sg19
I494
sg20
g6
sg21
I800000
sg22
I495633
sg23
I0
sg24
I4
sg25
I378082
sg26
I314288
sg27
I1101393
sg28
F0.0
sg29
I117551
sg30
F0.3740231889222624
ssS'OVERDYKE JR JERE C'
p281
(dp282
g3
g6
sg4
I0
sg5
g6
sg7
I0
sg8
I18834
sg9
I00
sg10
g6
sg11
S'jere.overdyke@enron.com'
p283
sg13
I135836
sg14
F1.4307411971645547
sg15
g6
sg16
g6
sg17
g6
sg18
g6
sg19
I176
sg20
g6
sg21
g6
sg22
I7307594
sg23
g6
sg24
g6
sg25
I2041016
sg26
I94941
sg27
I249787
sg28
I0
sg29
I5266578
sg30
F55.472114260435426
ssS'PEREIRA PAULO V. FERRAZ'
p284
(dp285
g3
g6
sg4
I0
sg5
g6
sg7
I0
sg8
I27942
sg9
I00
sg10
I-101250
sg11
g6
sg13
g6
sg14
I0
sg15
g6
sg16
g6
sg17
g6
sg18
g6
sg19
g6
sg20
I101250
sg21
g6
sg22
g6
sg23
g6
sg24
g6
sg25
g6
sg26
g6
sg27
I27942
sg28
I0
sg29
g6
sg30
I0
ssS'STABLER FRANK'
p286
(dp287
g3
g6
sg4
I0
sg5
g6
sg7
F2.0876652387036434
sg8
I16514
sg9
I00
sg10
g6
sg11
S'frank.stabler@enron.com'
p288
sg13
g6
sg14
I0
sg15
g6
sg16
g6
sg17
g6
sg18
g6
sg19
I356071
sg20
g6
sg21
I500000
sg22
I511734
sg23
g6
sg24
g6
sg25
I511734
sg26
I239502
sg27
I1112087
sg28
I0
sg29
g6
sg30
I0
ssS'SKILLING JEFFREY K'
p289
(dp290
g3
I3627
sg4
F0.2777777777777778
sg5
g6
sg7
F5.03933380007163
sg8
I29336
sg9
I01
sg10
g6
sg11
S'jeff.skilling@enron.com'
p291
sg13
I1920000
sg14
F1.7277715885959877
sg15
g6
sg16
I2042
sg17
g6
sg18
I108
sg19
I22122
sg20
g6
sg21
I5600000
sg22
I26093672
sg23
I88
sg24
I30
sg25
I6843672
sg26
I1111258
sg27
I8682716
sg28
F0.0242624758753791
sg29
I19250000
sg30
F17.32270993774623
ssS'BLAKE JR. NORMAN P'
p292
(dp293
g3
g6
sg4
I0
sg5
g6
sg7
I0
sg8
I1279
sg9
I00
sg10
I-113784
sg11
g6
sg13
g6
sg14
I0
sg15
g6
sg16
g6
sg17
g6
sg18
g6
sg19
g6
sg20
I113784
sg21
g6
sg22
g6
sg23
g6
sg24
g6
sg25
g6
sg26
g6
sg27
I1279
sg28
I0
sg29
g6
sg30
I0
ssS'SHERRICK JEFFREY B'
p294
(dp295
g3
I613
sg4
F0.72
sg5
g6
sg7
I0
sg8
g6
sg9
I00
sg10
g6
sg11
S'jeffrey.sherrick@enron.com'
p296
sg13
g6
sg14
I0
sg15
g6
sg16
I583
sg17
g6
sg18
I25
sg19
g6
sg20
g6
sg21
g6
sg22
I1832468
sg23
I39
sg24
I18
sg25
I405999
sg26
g6
sg27
g6
sg28
F0.0636215334420881
sg29
I1426469
sg30
I0
ssS'PRENTICE JAMES'
p297
(dp298
g3
g6
sg4
I0
sg5
I564348
sg7
I0
sg8
g6
sg9
I00
sg10
g6
sg11
S'james.prentice@enron.com'
p299
sg13
g6
sg14
I0
sg15
g6
sg16
g6
sg17
g6
sg18
g6
sg19
g6
sg20
g6
sg21
g6
sg22
I1095040
sg23
g6
sg24
g6
sg25
I208809
sg26
g6
sg27
I564348
sg28
I0
sg29
I886231
sg30
I0
ssS'GRAY RODNEY'
p300
(dp301
g3
g6
sg4
I0
sg5
I93585
sg7
I0
sg8
g6
sg9
I00
sg10
g6
sg11
g6
sg13
I365625
sg14
F55.27210884353742
sg15
g6
sg16
g6
sg17
g6
sg18
g6
sg19
I680833
sg20
g6
sg21
g6
sg22
g6
sg23
g6
sg24
g6
sg25
g6
sg26
I6615
sg27
I1146658
sg28
I0
sg29
g6
sg30
I0
ssS'PICKERING MARK R'
p302
(dp303
g3
I898
sg4
F0.0
sg5
g6
sg7
F0.45798939601885086
sg8
I31653
sg9
I00
sg10
g6
sg11
S'mark.pickering@enron.com'
p304
sg13
g6
sg14
I0
sg15
g6
sg16
I728
sg17
I400000
sg18
I67
sg19
g6
sg20
g6
sg21
I300000
sg22
I28798
sg23
I7
sg24
I0
sg25
g6
sg26
I655037
sg27
I1386690
sg28
F0.0077951002227171495
sg29
I28798
sg30
F0.04396392875516956
ssS'NOLES JAMES L'
p305
(dp306
g3
g6
sg4
I0
sg5
I774401
sg7
I0
sg8
g6
sg9
I00
sg10
g6
sg11
g6
sg13
g6
sg14
I0
sg15
I-94556
sg16
g6
sg17
g6
sg18
g6
sg19
g6
sg20
g6
sg21
g6
sg22
I368705
sg23
g6
sg24
g6
sg25
I463261
sg26
g6
sg27
I774401
sg28
I0
sg29
g6
sg30
I0
ssS'KEAN STEVEN J'
p307
(dp308
g3
I12754
sg4
F0.05725699067909454
sg5
g6
sg7
F2.473178380463869
sg8
I41953
sg9
I00
sg10
g6
sg11
S'steven.kean@enron.com'
p309
sg13
I300000
sg14
F0.7419535141391608
sg15
g6
sg16
I3639
sg17
g6
sg18
I6759
sg19
I1231
sg20
g6
sg21
I1000000
sg22
I6153642
sg23
I140
sg24
I387
sg25
I4131594
sg26
I404338
sg27
I1747522
sg28
F0.010976948408342482
sg29
I2022048
sg30
F5.000885397860206
ssS'FOWLER PEGGY'
p310
(dp311
g3
I517
sg4
F0.0
sg5
g6
sg7
I0
sg8
g6
sg9
I00
sg10
g6
sg11
S'kulvinder.fowler@enron.com'
p312
sg13
g6
sg14
I0
sg15
g6
sg16
I10
sg17
g6
sg18
I36
sg19
g6
sg20
g6
sg21
g6
sg22
I1884748
sg23
I0
sg24
I0
sg25
I560170
sg26
g6
sg27
g6
sg28
F0.0
sg29
I1324578
sg30
I0
ssS'WASAFF GEORGE'
p313
(dp314
g3
I400
sg4
F0.23333333333333334
sg5
I831299
sg7
F1.2500192310650933
sg8
g6
sg9
I00
sg10
I-583325
sg11
S'george.wasaff@enron.com'
p315
sg13
I200000
sg14
F0.7692426037323651
sg15
g6
sg16
I337
sg17
g6
sg18
I30
sg19
I1425
sg20
g6
sg21
I325000
sg22
I2056427
sg23
I22
sg24
I7
sg25
I388167
sg26
I259996
sg27
I1034395
sg28
F0.055
sg29
I1668260
sg30
F6.4164833305127775
ssS'WHITE JR THOMAS E'
p316
(dp317
g3
g6
sg4
I0
sg5
g6
sg7
F1.417130908254945
sg8
I81353
sg9
I00
sg10
g6
sg11
S'thomas.white@enron.com'
p318
sg13
g6
sg14
I0
sg15
g6
sg16
g6
sg17
g6
sg18
g6
sg19
I1085463
sg20
g6
sg21
I450000
sg22
I15144123
sg23
g6
sg24
g6
sg25
I13847074
sg26
I317543
sg27
I1934359
sg28
I0
sg29
I1297049
sg30
F4.084640505380373
ssS'CHRISTODOULOU DIOMEDES'
p319
(dp320
g3
g6
sg4
I0
sg5
g6
sg7
I0
sg8
g6
sg9
I00
sg10
g6
sg11
S'diomedes.christodoulou@enron.com'
p321
sg13
g6
sg14
I0
sg15
g6
sg16
g6
sg17
g6
sg18
g6
sg19
g6
sg20
g6
sg21
g6
sg22
I6077885
sg23
g6
sg24
g6
sg25
I950730
sg26
g6
sg27
g6
sg28
I0
sg29
I5127155
sg30
I0
ssS'ALLEN PHILLIP K'
p322
(dp323
g3
I2902
sg4
F0.029612756264236904
sg5
I2869717
sg7
F20.672922185635414
sg8
I13868
sg9
I00
sg10
I-3081055
sg11
S'phillip.allen@enron.com'
p324
sg13
I304805
sg14
F1.5092718674952341
sg15
I-126027
sg16
I1407
sg17
g6
sg18
I2195
sg19
I152
sg20
g6
sg21
I4175000
sg22
I1729541
sg23
I47
sg24
I65
sg25
I126027
sg26
I201955
sg27
I4484442
sg28
F0.016195727084769126
sg29
I1729541
sg30
F8.563991978411032
ssS'SHARP VICTORIA T'
p325
(dp326
g3
I3136
sg4
F0.04411764705882353
sg5
I187469
sg7
F2.417931379107461
sg8
I116337
sg9
I00
sg10
g6
sg11
S'vicki.sharp@enron.com'
p327
sg13
I422158
sg14
F1.7012484585687457
sg15
g6
sg16
I2477
sg17
g6
sg18
I136
sg19
I2401
sg20
g6
sg21
I600000
sg22
I494136
sg23
I24
sg24
I6
sg25
I213063
sg26
I248146
sg27
I1576511
sg28
F0.007653061224489796
sg29
I281073
sg30
F1.1326920441997856
ssS'JAEDICKE ROBERT'
p328
(dp329
g3
g6
sg4
I0
sg5
g6
sg7
I0
sg8
g6
sg9
I00
sg10
I-25000
sg11
g6
sg13
g6
sg14
I0
sg15
I-44093
sg16
g6
sg17
g6
sg18
g6
sg19
g6
sg20
I108750
sg21
g6
sg22
I431750
sg23
g6
sg24
g6
sg25
I44093
sg26
g6
sg27
I83750
sg28
I0
sg29
I431750
sg30
I0
ssS'WINOKUR JR. HERBERT S'
p330
(dp331
g3
g6
sg4
I0
sg5
g6
sg7
I0
sg8
I1413
sg9
I00
sg10
I-25000
sg11
g6
sg13
g6
sg14
I0
sg15
g6
sg16
g6
sg17
g6
sg18
g6
sg19
g6
sg20
I108579
sg21
g6
sg22
g6
sg23
g6
sg24
g6
sg25
g6
sg26
g6
sg27
I84992
sg28
I0
sg29
g6
sg30
I0
ssS'BROWN MICHAEL'
p332
(dp333
g3
I1486
sg4
F0.024390243902439025
sg5
g6
sg7
I0
sg8
I49288
sg9
I00
sg10
g6
sg11
S'michael.brown@enron.com'
p334
sg13
g6
sg14
I0
sg15
g6
sg16
I761
sg17
g6
sg18
I41
sg19
g6
sg20
g6
sg21
g6
sg22
g6
sg23
I13
sg24
I1
sg25
g6
sg26
g6
sg27
I49288
sg28
F0.008748317631224764
sg29
g6
sg30
I0
ssS'BADUM JAMES P'
p335
(dp336
g3
g6
sg4
I0
sg5
I178980
sg7
I0
sg8
I3486
sg9
I00
sg10
g6
sg11
g6
sg13
g6
sg14
I0
sg15
g6
sg16
g6
sg17
g6
sg18
g6
sg19
g6
sg20
g6
sg21
g6
sg22
I257817
sg23
g6
sg24
g6
sg25
g6
sg26
g6
sg27
I182466
sg28
I0
sg29
I257817
sg30
I0
ssS'HUGHES JAMES A'
p337
(dp338
g3
I719
sg4
F0.14705882352941177
sg5
g6
sg7
I0
sg8
g6
sg9
I00
sg10
g6
sg11
S'james.hughes@enron.com'
p339
sg13
g6
sg14
I0
sg15
g6
sg16
I589
sg17
g6
sg18
I34
sg19
g6
sg20
g6
sg21
g6
sg22
I1118394
sg23
I35
sg24
I5
sg25
I363428
sg26
g6
sg27
g6
sg28
F0.048678720445062586
sg29
I754966
sg30
I0
ssS'REYNOLDS LAWRENCE'
p340
(dp341
g3
g6
sg4
I0
sg5
I51365
sg7
F1.3089176559902616
sg8
I8409
sg9
I00
sg10
I-200000
sg11
g6
sg13
I156250
sg14
F2.045183837484784
sg15
I-140264
sg16
g6
sg17
g6
sg18
g6
sg19
I202052
sg20
g6
sg21
I100000
sg22
I4221891
sg23
g6
sg24
g6
sg25
I201483
sg26
I76399
sg27
I394475
sg28
I0
sg29
I4160672
sg30
F54.45977041584314
ssS'DIMICHELE RICHARD G'
p342
(dp343
g3
g6
sg4
I0
sg5
g6
sg7
F3.8053487982708494
sg8
I35812
sg9
I00
sg10
g6
sg11
S'richard.dimichele@enron.com'
p344
sg13
I694862
sg14
F2.644192276664079
sg15
g6
sg16
g6
sg17
g6
sg18
g6
sg19
I374689
sg20
g6
sg21
I1000000
sg22
I8317782
sg23
g6
sg24
g6
sg25
I126027
sg26
I262788
sg27
I2368151
sg28
I0
sg29
I8191755
sg30
F31.172485044979222
ssS'BHATNAGAR SANJAY'
p345
(dp346
g3
I523
sg4
F0.034482758620689655
sg5
g6
sg7
I0
sg8
g6
sg9
I00
sg10
g6
sg11
S'sanjay.bhatnagar@enron.com'
p347
sg13
g6
sg14
I0
sg15
I15456290
sg16
I463
sg17
g6
sg18
I29
sg19
I137864
sg20
I137864
sg21
g6
sS'total_stock_value'
p348
S'NaN'
p349
sg23
I0
sg24
I1
sg25
I-2604490
sg26
g6
sg27
I15456290
sg28
F0.0
sg29
I2604490
sg30
I0
ssS'CARTER REBECCA C'
p350
(dp351
g3
I312
sg4
F0.4666666666666667
sg5
g6
sg7
F1.14587351848103
sg8
g6
sg9
I00
sg10
I-159792
sg11
S'rebecca.carter@enron.com'
p352
sg13
I75000
sg14
F0.2864683796202575
sg15
I-307301
sg16
I196
sg17
g6
sg18
I15
sg19
I540
sg20
g6
sg21
I300000
sg22
g6
sg23
I29
sg24
I7
sg25
I307301
sg26
I261809
sg27
I477557
sg28
F0.09294871794871795
sg29
g6
sg30
I0
ssS'BUCHANAN HAROLD G'
p353
(dp354
g3
I1088
sg4
F0.0
sg5
g6
sg7
F2.015990839337626
sg8
I600
sg9
I00
sg10
g6
sg11
S'john.buchanan@enron.com'
p355
sg13
I304805
sg14
F1.2289681755686102
sg15
g6
sg16
I23
sg17
g6
sg18
I125
sg19
I1215
sg20
g6
sg21
I500000
sg22
I1014505
sg23
I0
sg24
I0
sg25
I189041
sg26
I248017
sg27
I1054637
sg28
F0.0
sg29
I825464
sg30
F3.3282557244059885
ssS'YEAP SOON'
p356
(dp357
g3
g6
sg4
I0
sg5
g6
sg7
I0
sg8
I55097
sg9
I00
sg10
g6
sg11
g6
sg13
g6
sg14
I0
sg15
g6
sg16
g6
sg17
g6
sg18
g6
sg19
g6
sg20
g6
sg21
g6
sg22
I192758
sg23
g6
sg24
g6
sg25
g6
sg26
g6
sg27
I55097
sg28
I0
sg29
I192758
sg30
I0
ssS'MURRAY JULIA H'
p358
(dp359
g3
I2192
sg4
F0.044444444444444446
sg5
g6
sg7
F1.744561330053558
sg8
I57580
sg9
I00
sg10
g6
sg11
S'julia.murray@enron.com'
p360
sg13
I125000
sg14
F0.5451754156417369
sg15
g6
sg16
I395
sg17
g6
sg18
I45
sg19
I330
sg20
g6
sg21
I400000
sg22
I597461
sg23
I11
sg24
I2
sg25
I196983
sg26
I229284
sg27
I812194
sg28
F0.005018248175182482
sg29
I400478
sg30
F1.746646080842972
ssS'GARLAND C KEVIN'
p361
(dp362
g3
I209
sg4
F0.6136363636363636
sg5
g6
sg7
F3.6646460814155017
sg8
I48405
sg9
I00
sg10
g6
sg11
S'kevin.garland@enron.com'
p363
sg13
I375304
sg14
F1.6180662740465452
sg15
g6
sg16
I178
sg17
g6
sg18
I44
sg19
I60814
sg20
g6
sg21
I850000
sg22
I896153
sg23
I10
sg24
I27
sg25
I259907
sg26
I231946
sg27
I1566469
sg28
F0.04784688995215311
sg29
I636246
sg30
F2.743078130254456
ssS'DODSON KEITH'
p364
(dp365
g3
I176
sg4
F0.21428571428571427
sg5
g6
sg7
F0.3167377818400655
sg8
I28164
sg9
I00
sg10
g6
sg11
S'keith.dodson@enron.com'
p366
sg13
g6
sg14
I0
sg15
g6
sg16
I114
sg17
g6
sg18
I14
sg19
I774
sg20
g6
sg21
I70000
sg22
g6
sg23
I10
sg24
I3
sg25
g6
sg26
I221003
sg27
I319941
sg28
F0.056818181818181816
sg29
g6
sg30
I0
ssS'YEAGER F SCOTT'
p367
(dp368
g3
g6
sg4
I0
sg5
g6
sg7
I0
sg8
I53947
sg9
I01
sg10
g6
sg11
S'scott.yeager@enron.com'
p369
sg13
g6
sg14
I0
sg15
g6
sg16
g6
sg17
g6
sg18
g6
sg19
I147950
sg20
g6
sg21
g6
sg22
I11884758
sg23
g6
sg24
g6
sg25
I3576206
sg26
I158403
sg27
I360300
sg28
I0
sg29
I8308552
sg30
F52.45198638914667
ssS'HIRKO JOSEPH'
p370
(dp371
g3
g6
sg4
I0
sg5
I10259
sg7
I0
sg8
I77978
sg9
I01
sg10
g6
sg11
S'joe.hirko@enron.com'
p372
sg13
g6
sg14
I0
sg15
g6
sg16
g6
sg17
g6
sg18
g6
sg19
I2856
sg20
g6
sg21
g6
sg22
I30766064
sg23
g6
sg24
g6
sg25
g6
sg26
g6
sg27
I91093
sg28
I0
sg29
I30766064
sg30
I0
ssS'DIETRICH JANET R'
p373
(dp374
g3
I2572
sg4
F0.2222222222222222
sg5
g6
sg7
F2.3990403838464616
sg8
I3475
sg9
I00
sg10
g6
sg11
S'janet.dietrich@enron.com'
p375
sg13
I556416
sg14
F2.2247740903638547
sg15
g6
sg16
I1902
sg17
g6
sg18
I63
sg19
I473
sg20
g6
sg21
I600000
sg22
I1865087
sg23
I305
sg24
I14
sg25
I315068
sg26
I250100
sg27
I1410464
sg28
F0.11858475894245724
sg29
I1550019
sg30
F6.197596961215514
ssS'DERRICK JR. JAMES V'
p376
(dp377
g3
I2181
sg4
F0.022002200220022004
sg5
g6
sg7
F1.6247778624016247
sg8
I51124
sg9
I00
sg10
I-1284000
sg11
S'james.derrick@enron.com'
p378
sg13
I484000
sg14
F0.982990606752983
sg15
I-1787380
sg16
I1401
sg17
g6
sg18
I909
sg19
I7482
sg20
g6
sg21
I800000
sg22
I8831913
sg23
I64
sg24
I20
sg25
I1787380
sg26
I492375
sg27
I550981
sg28
F0.029344337459880788
sg29
I8831913
sg30
F17.9373709063214
ssS'FREVERT MARK A'
p379
(dp380
g3
I3275
sg4
F0.2857142857142857
sg5
I6426990
sg7
F1.885134956811558
sg8
I86987
sg9
I00
sg10
I-3367011
sg11
S'mark.frevert@enron.com'
p381
sg13
I1617011
sg14
F1.5241419808244072
sg15
g6
sg16
I2979
sg17
I2000000
sg18
I21
sg19
I7427621
sg20
g6
sg21
I2000000
sg22
I14622185
sg23
I242
sg24
I6
sg25
I4188667
sg26
I1060932
sg27
I17252530
sg28
F0.07389312977099237
sg29
I10433518
sg30
F9.834294752161307
ssS'PAI LOU L'
p382
(dp383
g3
g6
sg4
I0
sg5
g6
sg7
F3.8185574253758414
sg8
I32047
sg9
I00
sg10
g6
sg11
S'lou.pai@enron.com'
p384
sg13
g6
sg14
I0
sg15
g6
sg16
g6
sg17
g6
sg18
g6
sg19
I1829457
sg20
g6
sg21
I1000000
sg22
I23817930
sg23
g6
sg24
g6
sg25
I8453763
sg26
I261879
sg27
I3123383
sg28
I0
sg29
I15364167
sg30
F58.66895398256447
ssS'BAY FRANKLIN R'
p385
(dp386
g3
g6
sg4
I0
sg5
I260455
sg7
F1.6689545251615756
sg8
I129142
sg9
I00
sg10
I-201641
sg11
S'frank.bay@enron.com'
p387
sg13
g6
sg14
I0
sg15
I-82782
sg16
g6
sg17
g6
sg18
g6
sg19
I69
sg20
g6
sg21
I400000
sg22
I63014
sg23
g6
sg24
g6
sg25
I145796
sg26
I239671
sg27
I827696
sg28
I0
sg29
g6
sg30
I0
ssS'HAYSLETT RODERICK J'
p388
(dp389
g3
I2649
sg4
F0.03581526861451461
sg5
g6
sg7
I0
sg8
g6
sg9
I00
sg10
g6
sg11
S'rod.hayslett@enron.com'
p390
sg13
g6
sg14
I0
sg15
g6
sg16
I571
sg17
g6
sg18
I1061
sg19
g6
sg20
g6
sg21
g6
sg22
I346663
sg23
I35
sg24
I38
sg25
I346663
sg26
g6
sg27
g6
sg28
F0.01321253303133258
sg29
g6
sg30
I0
ssS'FUGH JOHN L'
p391
(dp392
g3
g6
sg4
I0
sg5
I50591
sg7
I0
sg8
g6
sg9
I00
sg10
g6
sg11
g6
sg13
g6
sg14
I0
sg15
g6
sg16
g6
sg17
g6
sg18
g6
sg19
g6
sg20
g6
sg21
g6
sg22
I176378
sg23
g6
sg24
g6
sg25
g6
sg26
g6
sg27
I50591
sg28
I0
sg29
I176378
sg30
I0
ssS'FALLON JAMES B'
p393
(dp394
g3
I1755
sg4
F0.49333333333333335
sg5
g6
sg7
F8.207808580771403
sg8
I95924
sg9
I00
sg10
g6
sg11
S'jim.fallon@enron.com'
p395
sg13
I374347
sg14
F1.229027407514413
sg15
g6
sg16
I1604
sg17
g6
sg18
I75
sg19
I401481
sg20
g6
sg21
I2500000
sg22
I2332399
sg23
I42
sg24
I37
sg25
I1392142
sg26
I304588
sg27
I3676340
sg28
F0.023931623931623933
sg29
I940257
sg30
F3.0869797890921507
ssS'KOENIG MARK E'
p396
(dp397
g3
I2374
sg4
F0.2459016393442623
sg5
g6
sg7
F2.2584579249288588
sg8
I127017
sg9
I01
sg10
g6
sg11
S'mark.koenig@enron.com'
p398
sg13
I300000
sg14
F0.9679105392552251
sg15
g6
sg16
I2271
sg17
g6
sg18
I61
sg19
I150458
sg20
g6
sg21
I700000
sg22
I1920055
sg23
I53
sg24
I15
sg25
I1248318
sg26
I309946
sg27
I1587421
sg28
F0.02232518955349621
sg29
I671737
sg30
F2.1672710730256237
ssS'SAVAGE FRANK'
p399
(dp400
g3
g6
sg4
I0
sg5
g6
sg7
I0
sg8
g6
sg9
I00
sg10
I-121284
sg11
g6
sg13
g6
sg14
I0
sg15
g6
sg16
g6
sg17
g6
sg18
g6
sg19
g6
sg20
I125034
sg21
g6
sg22
g6
sg23
g6
sg24
g6
sg25
g6
sg26
g6
sg27
I3750
sg28
I0
sg29
g6
sg30
I0
ssS'IZZO LAWRENCE L'
p401
(dp402
g3
I496
sg4
F0.2631578947368421
sg5
g6
sg7
I0
sg8
I28093
sg9
I00
sg10
g6
sg11
S'larry.izzo@enron.com'
p403
sg13
I312500
sg14
F3.6646574571381665
sg15
g6
sg16
I437
sg17
g6
sg18
I19
sg19
I1553729
sg20
g6
sg21
g6
sg22
I5819980
sg23
I28
sg24
I5
sg25
I3654808
sg26
I85274
sg27
I1979596
sg28
F0.056451612903225805
sg29
I2165172
sg30
F25.390763890517626
ssS'TILNEY ELIZABETH A'
p404
(dp405
g3
I460
sg4
F0.5789473684210527
sg5
g6
sg7
F1.2129151201998885
sg8
g6
sg9
I00
sg10
I-575000
sg11
S'elizabeth.tilney@enron.com'
p406
sg13
I275000
sg14
F1.111838860183231
sg15
g6
sg16
I379
sg17
g6
sg18
I19
sg19
I152055
sg20
g6
sg21
I300000
sg22
I1168042
sg23
I10
sg24
I11
sg25
I576792
sg26
I247338
sg27
I399393
sg28
F0.021739130434782608
sg29
I591250
sg30
F2.3904535493939467
ssS'MARTIN AMANDA K'
p407
(dp408
g3
I1522
sg4
F0.0
sg5
I85430
sg7
I0
sg8
I8211
sg9
I00
sg10
g6
sg11
S'a..martin@enron.com'
p409
sg13
I5145434
sg14
F14.72281944678915
sg15
g6
sg16
I477
sg17
g6
sg18
I230
sg19
I2818454
sg20
g6
sg21
g6
sg22
I2070306
sg23
I8
sg24
I0
sg25
g6
sg26
I349487
sg27
I8407016
sg28
F0.005256241787122208
sg29
I2070306
sg30
F5.923842660814279
ssS'BUY RICHARD B'
p410
(dp411
g3
I3523
sg4
F0.06742640075973409
sg5
I649584
sg7
F2.722767784211577
sg8
g6
sg9
I00
sg10
I-694862
sg11
S'rick.buy@enron.com'
p412
sg13
I769862
sg14
F2.3290616132096593
sg15
g6
sg16
I2333
sg17
g6
sg18
I1053
sg19
I400572
sg20
g6
sg21
I900000
sg22
I3444470
sg23
I156
sg24
I71
sg25
I901657
sg26
I330546
sg27
I2355702
sg28
F0.04428044280442804
sg29
I2542813
sg30
F7.692765908527104
ssS'GRAMM WENDY L'
p413
(dp414
g3
g6
sg4
I0
sg5
g6
sg7
I0
sg8
g6
sg9
I00
sg10
g6
sg11
g6
sg13
g6
sg14
I0
sg15
g6
sg16
g6
sg17
g6
sg18
g6
sg19
g6
sg20
I119292
sg21
g6
sg22
g6
sg23
g6
sg24
g6
sg25
g6
sg26
g6
sg27
I119292
sg28
I0
sg29
g6
sg30
I0
ssS'CAUSEY RICHARD A'
p415
(dp416
g3
I1892
sg4
F0.24489795918367346
sg5
g6
sg7
F2.4085416521150607
sg8
I30674
sg9
I01
sg10
I-235000
sg11
S'richard.causey@enron.com'
p417
sg13
I350000
sg14
F0.8429895782402713
sg15
g6
sg16
I1585
sg17
g6
sg18
I49
sg19
I307895
sg20
g6
sg21
I1000000
sg22
I2502063
sg23
I58
sg24
I12
sg25
I2502063
sg26
I415189
sg27
I1868758
sg28
F0.0306553911205074
sg29
g6
sg30
I0
ssS'TAYLOR MITCHELL S'
p418
(dp419
g3
I533
sg4
F0.0
sg5
I227449
sg7
F2.2623240100447184
sg8
g6
sg9
I00
sg10
g6
sg11
S'mitchell.taylor@enron.com'
p420
sg13
g6
sg14
I0
sg15
g6
sg16
I300
sg17
g6
sg18
I29
sg19
g6
sg20
g6
sg21
I600000
sg22
I3745048
sg23
I0
sg24
I0
sg25
I563798
sg26
I265214
sg27
I1092663
sg28
F0.0
sg29
I3181250
sg30
F11.995030428257936
ssS'DONAHUE JR JEFFREY M'
p421
(dp422
g3
I865
sg4
F0.5
sg5
g6
sg7
F2.8714900520816506
sg8
I96268
sg9
I00
sg10
I-300000
sg11
S'jeff.donahue@enron.com'
p423
sg13
g6
sg14
I0
sg15
g6
sg16
I772
sg17
g6
sg18
I22
sg19
I891
sg20
g6
sg21
I800000
sg22
I1080988
sg23
I188
sg24
I11
sg25
I315068
sg26
I278601
sg27
I875760
sg28
F0.21734104046242775
sg29
I765920
sg30
F2.7491645758629724
ssS'GLISAN JR BEN F'
p424
(dp425
g3
I873
sg4
F0.375
sg5
g6
sg7
F2.1820165469588146
sg8
I125978
sg9
I01
sg10
g6
sg11
S'ben.glisan@enron.com'
p426
sg13
I71023
sg14
F0.2582889353577598
sg15
g6
sg16
I874
sg17
g6
sg18
I16
sg19
I200308
sg20
g6
sg21
I600000
sg22
I778546
sg23
I52
sg24
I6
sg25
I393818
sg26
I274975
sg27
I1272284
sg28
F0.05956471935853379
sg29
I384728
sg30
F1.3991381034639512
ss.